target datalayout = "e-m:e-p270:32:32-p271:32:32-p272:64:64-i64:64-i128:128-f80:128-n8:16:32:64-S128"
target triple = "x86_64-pc-linux-gnu"

%struct.infinibandinfo = type { ptr, i8, i8, i16, i32, i64, i32, i32, i8, i8 }

@hf_infiniband_ver = internal global i32 0, align 4
@hf_infiniband_tcp_chk = internal global i32 0, align 4
@hf_infiniband_ip_chk = internal global i32 0, align 4
@hf_infiniband_fcs = internal global i32 0, align 4
@hf_infiniband_ms = internal global i32 0, align 4
@hf_infiniband_seg_off = internal global i32 0, align 4
@hf_infiniband_seg_id = internal global i32 0, align 4
@ett_eoib = internal global i32 0, align 4
@proto_mellanox_eoib = internal global i32 0, align 4
@eth_handle = internal global ptr null, align 8

; Function Attrs: null_pointer_is_valid sspstrong uwtable
define internal zeroext i1 @dissect_mellanox_eoib(ptr noundef %0, ptr noundef %1, ptr noundef %2, ptr noundef %3) #0 {
  %5 = alloca i1, align 1
  %6 = alloca ptr, align 8
  %7 = alloca ptr, align 8
  %8 = alloca ptr, align 8
  %9 = alloca ptr, align 8
  %10 = alloca ptr, align 8
  %11 = alloca ptr, align 8
  %12 = alloca ptr, align 8
  %13 = alloca i32, align 4
  %14 = alloca i8, align 1
  %15 = alloca ptr, align 8
  %16 = alloca i32, align 4
  store ptr %0, ptr %6, align 8
  store ptr %1, ptr %7, align 8
  store ptr %2, ptr %8, align 8
  store ptr %3, ptr %9, align 8
  call void @llvm.lifetime.start.p0(i64 8, ptr %10) #18
  call void @llvm.lifetime.start.p0(i64 8, ptr %11) #18
  call void @llvm.lifetime.start.p0(i64 8, ptr %12) #18
  call void @llvm.lifetime.start.p0(i64 4, ptr %13) #18
  store i32 0, ptr %13, align 4
  call void @llvm.lifetime.start.p0(i64 1, ptr %14) #18
  call void @llvm.lifetime.start.p0(i64 8, ptr %15) #18
  %17 = load ptr, ptr %9, align 8
  store ptr %17, ptr %15, align 8
  %18 = load ptr, ptr %15, align 8
  %19 = getelementptr inbounds nuw %struct.infinibandinfo, ptr %18, i32 0, i32 1
  %20 = load i8, ptr %19, align 8
  %21 = zext i8 %20 to i32
  %22 = and i32 %21, 224
  %23 = ashr i32 %22, 5
  %24 = icmp ne i32 %23, 3
  br i1 %24, label %25, label %26

25:                                               ; preds = %4
  store i1 false, ptr %5, align 1
  store i32 1, ptr %16, align 4
  br label %111

26:                                               ; preds = %4
  %27 = load ptr, ptr %6, align 8
  %28 = load i32, ptr %13, align 4
  %29 = call zeroext i8 @tvb_get_uint8(ptr noundef %27, i32 noundef %28)
  %30 = zext i8 %29 to i32
  %31 = and i32 %30, 240
  %32 = icmp ne i32 %31, 192
  br i1 %32, label %33, label %34

33:                                               ; preds = %26
  store i1 false, ptr %5, align 1
  store i32 1, ptr %16, align 4
  br label %111

34:                                               ; preds = %26
  %35 = load ptr, ptr %6, align 8
  %36 = call i32 @tvb_reported_length(ptr noundef %35)
  %37 = icmp ult i32 %36, 4
  br i1 %37, label %38, label %39

38:                                               ; preds = %34
  store i1 false, ptr %5, align 1
  store i32 1, ptr %16, align 4
  br label %111

39:                                               ; preds = %34
  %40 = load ptr, ptr %8, align 8
  %41 = load i32, ptr @proto_mellanox_eoib, align 4
  %42 = load ptr, ptr %6, align 8
  %43 = load i32, ptr %13, align 4
  %44 = call ptr @proto_tree_add_item(ptr noundef %40, i32 noundef %41, ptr noundef %42, i32 noundef %43, i32 noundef 4, i32 noundef 0)
  store ptr %44, ptr %10, align 8
  %45 = load ptr, ptr %10, align 8
  %46 = load i32, ptr @ett_eoib, align 4
  %47 = call ptr @proto_item_add_subtree(ptr noundef %45, i32 noundef %46)
  store ptr %47, ptr %11, align 8
  %48 = load ptr, ptr %11, align 8
  %49 = load i32, ptr @hf_infiniband_ver, align 4
  %50 = load ptr, ptr %6, align 8
  %51 = load i32, ptr %13, align 4
  %52 = call ptr @proto_tree_add_item(ptr noundef %48, i32 noundef %49, ptr noundef %50, i32 noundef %51, i32 noundef 2, i32 noundef 0)
  %53 = load ptr, ptr %11, align 8
  %54 = load i32, ptr @hf_infiniband_tcp_chk, align 4
  %55 = load ptr, ptr %6, align 8
  %56 = load i32, ptr %13, align 4
  %57 = call ptr @proto_tree_add_item(ptr noundef %53, i32 noundef %54, ptr noundef %55, i32 noundef %56, i32 noundef 2, i32 noundef 0)
  %58 = load ptr, ptr %11, align 8
  %59 = load i32, ptr @hf_infiniband_ip_chk, align 4
  %60 = load ptr, ptr %6, align 8
  %61 = load i32, ptr %13, align 4
  %62 = call ptr @proto_tree_add_item(ptr noundef %58, i32 noundef %59, ptr noundef %60, i32 noundef %61, i32 noundef 2, i32 noundef 0)
  %63 = load ptr, ptr %11, align 8
  %64 = load i32, ptr @hf_infiniband_fcs, align 4
  %65 = load ptr, ptr %6, align 8
  %66 = load i32, ptr %13, align 4
  %67 = call ptr @proto_tree_add_item(ptr noundef %63, i32 noundef %64, ptr noundef %65, i32 noundef %66, i32 noundef 2, i32 noundef 0)
  %68 = load ptr, ptr %11, align 8
  %69 = load i32, ptr @hf_infiniband_ms, align 4
  %70 = load ptr, ptr %6, align 8
  %71 = load i32, ptr %13, align 4
  %72 = call ptr @proto_tree_add_item(ptr noundef %68, i32 noundef %69, ptr noundef %70, i32 noundef %71, i32 noundef 2, i32 noundef 0)
  %73 = load ptr, ptr %11, align 8
  %74 = load i32, ptr @hf_infiniband_seg_off, align 4
  %75 = load ptr, ptr %6, align 8
  %76 = load i32, ptr %13, align 4
  %77 = call ptr @proto_tree_add_item(ptr noundef %73, i32 noundef %74, ptr noundef %75, i32 noundef %76, i32 noundef 2, i32 noundef 0)
  %78 = load ptr, ptr %6, align 8
  %79 = load i32, ptr %13, align 4
  %80 = call zeroext i16 @tvb_get_ntohs(ptr noundef %78, i32 noundef %79)
  %81 = zext i16 %80 to i32
  %82 = and i32 %81, 63
  %83 = icmp ne i32 %82, 0
  %84 = zext i1 %83 to i8
  store i8 %84, ptr %14, align 1
  %85 = load i32, ptr %13, align 4
  %86 = add i32 %85, 2
  store i32 %86, ptr %13, align 4
  %87 = load ptr, ptr %11, align 8
  %88 = load i32, ptr @hf_infiniband_seg_id, align 4
  %89 = load ptr, ptr %6, align 8
  %90 = load i32, ptr %13, align 4
  %91 = call ptr @proto_tree_add_item(ptr noundef %87, i32 noundef %88, ptr noundef %89, i32 noundef %90, i32 noundef 2, i32 noundef 0)
  %92 = load i32, ptr %13, align 4
  %93 = add i32 %92, 2
  store i32 %93, ptr %13, align 4
  %94 = load ptr, ptr %6, align 8
  %95 = load i32, ptr %13, align 4
  %96 = call ptr @tvb_new_subset_remaining(ptr noundef %94, i32 noundef %95)
  store ptr %96, ptr %12, align 8
  %97 = load i8, ptr %14, align 1, !range !6, !noundef !7
  %98 = trunc i8 %97 to i1
  br i1 %98, label %99, label %104

99:                                               ; preds = %39
  %100 = load ptr, ptr %12, align 8
  %101 = load ptr, ptr %7, align 8
  %102 = load ptr, ptr %8, align 8
  %103 = call i32 @call_data_dissector(ptr noundef %100, ptr noundef %101, ptr noundef %102)
  br label %110

104:                                              ; preds = %39
  %105 = load ptr, ptr @eth_handle, align 8
  %106 = load ptr, ptr %12, align 8
  %107 = load ptr, ptr %7, align 8
  %108 = load ptr, ptr %8, align 8
  %109 = call i32 @call_dissector(ptr noundef %105, ptr noundef %106, ptr noundef %107, ptr noundef %108)
  br label %110

110:                                              ; preds = %104, %99
  store i1 true, ptr %5, align 1
  store i32 1, ptr %16, align 4
  br label %111

111:                                              ; preds = %110, %38, %33, %25
  call void @llvm.lifetime.end.p0(i64 8, ptr %15) #18
  call void @llvm.lifetime.end.p0(i64 1, ptr %14) #18
  call void @llvm.lifetime.end.p0(i64 4, ptr %13) #18
  call void @llvm.lifetime.end.p0(i64 8, ptr %12) #18
  call void @llvm.lifetime.end.p0(i64 8, ptr %11) #18
  call void @llvm.lifetime.end.p0(i64 8, ptr %10) #18
  %112 = load i1, ptr %5, align 1
  ret i1 %112
}