; Function Attrs: null_pointer_is_valid sspstrong uwtable
define internal noundef zeroext i1 @dissect_mellanox_eoib(ptr noundef %0, ptr noundef %1, ptr noundef %2, ptr noundef readonly captures(none) %3) #0 {
  %5 = getelementptr inbounds nuw i8, ptr %3, i64 8
  %6 = load i8, ptr %5, align 8
  %.mask = and i8 %6, -32
  %.not = icmp eq i8 %.mask, 96
  br i1 %.not, label %7, label %40

7:                                                ; preds = %4
  %8 = tail call zeroext i8 @tvb_get_uint8(ptr noundef %0, i32 noundef 0)
  %9 = and i8 %8, -16
  %.not43 = icmp eq i8 %9, -64
  br i1 %.not43, label %10, label %40

10:                                               ; preds = %7
  %11 = tail call i32 @tvb_reported_length(ptr noundef %0)
  %12 = icmp ult i32 %11, 4
  br i1 %12, label %40, label %13

13:                                               ; preds = %10
  %14 = load i32, ptr @proto_mellanox_eoib, align 4
  %15 = tail call ptr @proto_tree_add_item(ptr noundef %2, i32 noundef %14, ptr noundef %0, i32 noundef 0, i32 noundef 4, i32 noundef 0)
  %16 = load i32, ptr @ett_eoib, align 4
  %17 = tail call ptr @proto_item_add_subtree(ptr noundef %15, i32 noundef %16)
  %18 = load i32, ptr @hf_infiniband_ver, align 4
  %19 = tail call ptr @proto_tree_add_item(ptr noundef %17, i32 noundef %18, ptr noundef %0, i32 noundef 0, i32 noundef 2, i32 noundef 0)
  %20 = load i32, ptr @hf_infiniband_tcp_chk, align 4
  %21 = tail call ptr @proto_tree_add_item(ptr noundef %17, i32 noundef %20, ptr noundef %0, i32 noundef 0, i32 noundef 2, i32 noundef 0)
  %22 = load i32, ptr @hf_infiniband_ip_chk, align 4
  %23 = tail call ptr @proto_tree_add_item(ptr noundef %17, i32 noundef %22, ptr noundef %0, i32 noundef 0, i32 noundef 2, i32 noundef 0)
  %24 = load i32, ptr @hf_infiniband_fcs, align 4
  %25 = tail call ptr @proto_tree_add_item(ptr noundef %17, i32 noundef %24, ptr noundef %0, i32 noundef 0, i32 noundef 2, i32 noundef 0)
  %26 = load i32, ptr @hf_infiniband_ms, align 4
  %27 = tail call ptr @proto_tree_add_item(ptr noundef %17, i32 noundef %26, ptr noundef %0, i32 noundef 0, i32 noundef 2, i32 noundef 0)
  %28 = load i32, ptr @hf_infiniband_seg_off, align 4
  %29 = tail call ptr @proto_tree_add_item(ptr noundef %17, i32 noundef %28, ptr noundef %0, i32 noundef 0, i32 noundef 2, i32 noundef 0)
  %30 = tail call zeroext i16 @tvb_get_ntohs(ptr noundef %0, i32 noundef 0)
  %31 = and i16 %30, 63
  %.not44 = icmp eq i16 %31, 0
  %32 = load i32, ptr @hf_infiniband_seg_id, align 4
  %33 = tail call ptr @proto_tree_add_item(ptr noundef %17, i32 noundef %32, ptr noundef %0, i32 noundef 2, i32 noundef 2, i32 noundef 0)
  %34 = tail call ptr @tvb_new_subset_remaining(ptr noundef %0, i32 noundef 4)
  br i1 %.not44, label %37, label %35

35:                                               ; preds = %13
  %36 = tail call i32 @call_data_dissector(ptr noundef %34, ptr noundef %1, ptr noundef %2)
  br label %40

37:                                               ; preds = %13
  %38 = load ptr, ptr @eth_handle, align 8
  %39 = tail call i32 @call_dissector(ptr noundef %38, ptr noundef %34, ptr noundef %1, ptr noundef %2)
  br label %40

40:                                               ; preds = %35, %37, %10, %7, %4
  %.0 = phi i1 [ false, %4 ], [ false, %7 ], [ false, %10 ], [ true, %37 ], [ true, %35 ]
  ret i1 %.0
}